target datalayout = "e-m:e-p270:32:32-p271:32:32-p272:64:64-i64:64-i128:128-f80:128-n8:16:32:64-S128"
target triple = "x86_64-pc-linux-gnu"

%union.OnigValue = type { %struct.anon }
%struct.anon = type { ptr, ptr }
%struct.CalloutListEntry = type { i32, i32, i32, i32, ptr, ptr, i32, ptr, ptr, %union.anon }
%union.anon = type { %struct.anon.1 }
%struct.anon.1 = type { i32, i32, [4 x i32], [4 x %union.OnigValue] }
%struct.RegexExt = type { ptr, ptr, ptr, i32, i32, ptr }
%struct.ParseEnv = type { i32, i32, ptr, ptr, i32, i32, i32, ptr, ptr, ptr, ptr, ptr, i32, i32, i32, i32, [8 x %struct.MemEnv], ptr, i32, i32, i32, i32, ptr, ptr, i32, i32 }
%struct.MemEnv = type { ptr, ptr }

; Function Attrs: nounwind uwtable
define internal i32 @reg_callout_list_entry(ptr noundef %0, ptr noundef %1) #0 {
  %3 = alloca i32, align 4
  %4 = alloca ptr, align 8
  %5 = alloca ptr, align 8
  %6 = alloca i32, align 4
  %7 = alloca ptr, align 8
  %8 = alloca ptr, align 8
  %9 = alloca ptr, align 8
  %10 = alloca i32, align 4
  %11 = alloca i32, align 4
  store ptr %0, ptr %4, align 8, !tbaa !9
  store ptr %1, ptr %5, align 8, !tbaa !62
  call void @llvm.lifetime.start.p0(i64 4, ptr %6) #8
  call void @llvm.lifetime.start.p0(i64 8, ptr %7) #8
  call void @llvm.lifetime.start.p0(i64 8, ptr %8) #8
  call void @llvm.lifetime.start.p0(i64 8, ptr %9) #8
  %12 = load ptr, ptr %4, align 8, !tbaa !9
  %13 = getelementptr inbounds nuw %struct.ParseEnv, ptr %12, i32 0, i32 11
  %14 = load ptr, ptr %13, align 8, !tbaa !161
  %15 = call ptr @onig_get_regex_ext(ptr noundef %14)
  store ptr %15, ptr %9, align 8, !tbaa !9
  %16 = load ptr, ptr %9, align 8, !tbaa !9
  %17 = icmp eq ptr %16, null
  br i1 %17, label %18, label %19

18:                                               ; preds = %2
  store i32 -5, ptr %3, align 4
  store i32 1, ptr %10, align 4
  br label %107

19:                                               ; preds = %2
  %20 = load ptr, ptr %9, align 8, !tbaa !9
  %21 = getelementptr inbounds nuw %struct.RegexExt, ptr %20, i32 0, i32 5
  %22 = load ptr, ptr %21, align 8, !tbaa !104
  %23 = icmp eq ptr %22, null
  br i1 %23, label %24, label %37

24:                                               ; preds = %19
  %25 = call noalias ptr @malloc(i64 noundef 432) #9
  store ptr %25, ptr %7, align 8, !tbaa !9
  %26 = load ptr, ptr %7, align 8, !tbaa !9
  %27 = icmp eq ptr %26, null
  br i1 %27, label %28, label %29

28:                                               ; preds = %24
  store i32 -5, ptr %3, align 4
  store i32 1, ptr %10, align 4
  br label %107

29:                                               ; preds = %24
  %30 = load ptr, ptr %7, align 8, !tbaa !9
  %31 = load ptr, ptr %9, align 8, !tbaa !9
  %32 = getelementptr inbounds nuw %struct.RegexExt, ptr %31, i32 0, i32 5
  store ptr %30, ptr %32, align 8, !tbaa !104
  %33 = load ptr, ptr %9, align 8, !tbaa !9
  %34 = getelementptr inbounds nuw %struct.RegexExt, ptr %33, i32 0, i32 4
  store i32 3, ptr %34, align 4, !tbaa !282
  %35 = load ptr, ptr %9, align 8, !tbaa !9
  %36 = getelementptr inbounds nuw %struct.RegexExt, ptr %35, i32 0, i32 3
  store i32 0, ptr %36, align 8, !tbaa !102
  br label %37

37:                                               ; preds = %29, %19
  %38 = load ptr, ptr %9, align 8, !tbaa !9
  %39 = getelementptr inbounds nuw %struct.RegexExt, ptr %38, i32 0, i32 3
  %40 = load i32, ptr %39, align 8, !tbaa !102
  %41 = add nsw i32 %40, 1
  store i32 %41, ptr %6, align 4, !tbaa !10
  %42 = load i32, ptr %6, align 4, !tbaa !10
  %43 = load ptr, ptr %9, align 8, !tbaa !9
  %44 = getelementptr inbounds nuw %struct.RegexExt, ptr %43, i32 0, i32 4
  %45 = load i32, ptr %44, align 4, !tbaa !282
  %46 = icmp sgt i32 %42, %45
  br i1 %46, label %47, label %72

47:                                               ; preds = %37
  call void @llvm.lifetime.start.p0(i64 4, ptr %11) #8
  %48 = load ptr, ptr %9, align 8, !tbaa !9
  %49 = getelementptr inbounds nuw %struct.RegexExt, ptr %48, i32 0, i32 4
  %50 = load i32, ptr %49, align 4, !tbaa !282
  %51 = mul nsw i32 %50, 2
  store i32 %51, ptr %11, align 4, !tbaa !10
  %52 = load ptr, ptr %9, align 8, !tbaa !9
  %53 = getelementptr inbounds nuw %struct.RegexExt, ptr %52, i32 0, i32 5
  %54 = load ptr, ptr %53, align 8, !tbaa !104
  %55 = load i32, ptr %11, align 4, !tbaa !10
  %56 = sext i32 %55 to i64
  %57 = mul i64 144, %56
  %58 = call ptr @realloc(ptr noundef %54, i64 noundef %57) #10
  store ptr %58, ptr %7, align 8, !tbaa !9
  %59 = load ptr, ptr %7, align 8, !tbaa !9
  %60 = icmp eq ptr %59, null
  br i1 %60, label %61, label %62

61:                                               ; preds = %47
  store i32 -5, ptr %3, align 4
  store i32 1, ptr %10, align 4
  br label %69

62:                                               ; preds = %47
  %63 = load ptr, ptr %7, align 8, !tbaa !9
  %64 = load ptr, ptr %9, align 8, !tbaa !9
  %65 = getelementptr inbounds nuw %struct.RegexExt, ptr %64, i32 0, i32 5
  store ptr %63, ptr %65, align 8, !tbaa !104
  %66 = load i32, ptr %11, align 4, !tbaa !10
  %67 = load ptr, ptr %9, align 8, !tbaa !9
  %68 = getelementptr inbounds nuw %struct.RegexExt, ptr %67, i32 0, i32 4
  store i32 %66, ptr %68, align 4, !tbaa !282
  store i32 0, ptr %10, align 4
  br label %69

69:                                               ; preds = %62, %61
  call void @llvm.lifetime.end.p0(i64 4, ptr %11) #8
  %70 = load i32, ptr %10, align 4
  switch i32 %70, label %107 [
    i32 0, label %71
  ]

71:                                               ; preds = %69
  br label %72

72:                                               ; preds = %71, %37
  %73 = load ptr, ptr %9, align 8, !tbaa !9
  %74 = getelementptr inbounds nuw %struct.RegexExt, ptr %73, i32 0, i32 5
  %75 = load ptr, ptr %74, align 8, !tbaa !104
  %76 = load i32, ptr %6, align 4, !tbaa !10
  %77 = sub nsw i32 %76, 1
  %78 = sext i32 %77 to i64
  %79 = getelementptr inbounds %struct.CalloutListEntry, ptr %75, i64 %78
  store ptr %79, ptr %8, align 8, !tbaa !9
  %80 = load ptr, ptr %8, align 8, !tbaa !9
  %81 = getelementptr inbounds nuw %struct.CalloutListEntry, ptr %80, i32 0, i32 0
  store i32 0, ptr %81, align 8, !tbaa !109
  %82 = load ptr, ptr %8, align 8, !tbaa !9
  %83 = getelementptr inbounds nuw %struct.CalloutListEntry, ptr %82, i32 0, i32 1
  store i32 0, ptr %83, align 4, !tbaa !128
  %84 = load ptr, ptr %8, align 8, !tbaa !9
  %85 = getelementptr inbounds nuw %struct.CalloutListEntry, ptr %84, i32 0, i32 2
  store i32 0, ptr %85, align 8, !tbaa !265
  %86 = load ptr, ptr %8, align 8, !tbaa !9
  %87 = getelementptr inbounds nuw %struct.CalloutListEntry, ptr %86, i32 0, i32 6
  store i32 0, ptr %87, align 8, !tbaa !270
  %88 = load ptr, ptr %8, align 8, !tbaa !9
  %89 = getelementptr inbounds nuw %struct.CalloutListEntry, ptr %88, i32 0, i32 4
  store ptr null, ptr %89, align 8, !tbaa !105
  %90 = load ptr, ptr %8, align 8, !tbaa !9
  %91 = getelementptr inbounds nuw %struct.CalloutListEntry, ptr %90, i32 0, i32 5
  store ptr null, ptr %91, align 8, !tbaa !106
  %92 = load ptr, ptr %8, align 8, !tbaa !9
  %93 = getelementptr inbounds nuw %struct.CalloutListEntry, ptr %92, i32 0, i32 7
  store ptr null, ptr %93, align 8, !tbaa !99
  %94 = load ptr, ptr %8, align 8, !tbaa !9
  %95 = getelementptr inbounds nuw %struct.CalloutListEntry, ptr %94, i32 0, i32 8
  store ptr null, ptr %95, align 8, !tbaa !271
  %96 = load ptr, ptr %8, align 8, !tbaa !9
  %97 = getelementptr inbounds nuw %struct.CalloutListEntry, ptr %96, i32 0, i32 9
  %98 = getelementptr inbounds nuw %struct.anon.1, ptr %97, i32 0, i32 0
  store i32 0, ptr %98, align 8, !tbaa !12
  %99 = load ptr, ptr %8, align 8, !tbaa !9
  %100 = getelementptr inbounds nuw %struct.CalloutListEntry, ptr %99, i32 0, i32 9
  %101 = getelementptr inbounds nuw %struct.anon.1, ptr %100, i32 0, i32 1
  store i32 0, ptr %101, align 4, !tbaa !12
  %102 = load i32, ptr %6, align 4, !tbaa !10
  %103 = load ptr, ptr %9, align 8, !tbaa !9
  %104 = getelementptr inbounds nuw %struct.RegexExt, ptr %103, i32 0, i32 3
  store i32 %102, ptr %104, align 8, !tbaa !102
  %105 = load i32, ptr %6, align 4, !tbaa !10
  %106 = load ptr, ptr %5, align 8, !tbaa !62
  store i32 %105, ptr %106, align 4, !tbaa !10
  store i32 0, ptr %3, align 4
  store i32 1, ptr %10, align 4
  br label %107

107:                                              ; preds = %72, %69, %28, %18
  call void @llvm.lifetime.end.p0(i64 8, ptr %9) #8
  call void @llvm.lifetime.end.p0(i64 8, ptr %8) #8
  call void @llvm.lifetime.end.p0(i64 8, ptr %7) #8
  call void @llvm.lifetime.end.p0(i64 4, ptr %6) #8
  %108 = load i32, ptr %3, align 4
  ret i32 %108
}